; Function Attrs: mustprogress nounwind uwtable
define hidden noundef zeroext i1 @_ZN20VM_GC_HeapInspection13doit_prologueEv(ptr noundef nonnull align 8 dereferenceable(56) %0) unnamed_addr #0 align 2 {
  %2 = getelementptr inbounds i8, ptr %0, i64 48
  %3 = load i8, ptr %2, align 8
  %4 = trunc i8 %3 to i1
  br i1 %4, label %5, label %13

5:                                                ; preds = %1
  %6 = load i8, ptr @UseZGC, align 1
  %7 = trunc i8 %6 to i1
  br i1 %7, label %8, label %13

8:                                                ; preds = %5
  %9 = load ptr, ptr @_ZN8Universe14_collectedHeapE, align 8
  %10 = load ptr, ptr %9, align 8
  %11 = getelementptr inbounds i8, ptr %10, i64 192
  %12 = load ptr, ptr %11, align 8
  tail call void %12(ptr noundef nonnull align 8 dereferenceable(104) %9, i32 noundef 6) #12
  br label %13

13:                                               ; preds = %8, %5, %1
  %14 = tail call noundef zeroext i1 @_ZN15VM_GC_Operation13doit_prologueEv(ptr noundef nonnull align 8 dereferenceable(33) %0)
  ret i1 %14
}